; Function Attrs: nounwind uwtable
define ptr @l_Lake_stdTomlConfigFileContents(ptr noundef %0, ptr noundef %1, ptr noundef %2) local_unnamed_addr #1 {
  %4 = tail call ptr @l_String_quote(ptr noundef %0) #6
  tail call void @lean_inc_heartbeat() #6
  %5 = tail call noalias ptr @mi_malloc_small(i64 noundef 16) #6
  %6 = icmp eq ptr %5, null
  br i1 %6, label %7, label %lean_alloc_ctor.exit

7:                                                ; preds = %3
  tail call void @lean_internal_panic_out_of_memory() #7
  unreachable

lean_alloc_ctor.exit:                             ; preds = %3
  %8 = getelementptr inbounds nuw i8, ptr %5, i64 4
  store i32 1, ptr %5, align 4, !tbaa !8
  store i32 50397200, ptr %8, align 4
  %9 = getelementptr inbounds nuw i8, ptr %5, i64 8
  store ptr %4, ptr %9, align 8, !tbaa !4
  %10 = load ptr, ptr @l_Std_Format_defWidth, align 8, !tbaa !4
  %11 = tail call ptr @lean_format_pretty(ptr noundef nonnull %5, ptr noundef %10, ptr noundef nonnull inttoptr (i64 1 to ptr), ptr noundef nonnull inttoptr (i64 1 to ptr)) #6
  %12 = load ptr, ptr @l_Lake_stdTomlConfigFileContents___closed__1, align 8, !tbaa !4
  %13 = tail call ptr @lean_string_append(ptr noundef %12, ptr noundef %11) #6
  %14 = ptrtoint ptr %11 to i64
  %15 = and i64 %14, 1
  %.not = icmp eq i64 %15, 0
  br i1 %.not, label %16, label %lean_dec.exit42

16:                                               ; preds = %lean_alloc_ctor.exit
  %17 = load i32, ptr %11, align 4, !tbaa !8
  %18 = icmp sgt i32 %17, 1
  br i1 %18, label %19, label %21, !prof !11

19:                                               ; preds = %16
  %20 = add nsw i32 %17, -1
  store i32 %20, ptr %11, align 4, !tbaa !8
  br label %lean_dec.exit42

21:                                               ; preds = %16
  %.not.i = icmp eq i32 %17, 0
  br i1 %.not.i, label %lean_dec.exit42, label %22

22:                                               ; preds = %21
  tail call void @lean_dec_ref_cold(ptr noundef nonnull %11) #6
  br label %lean_dec.exit42

lean_dec.exit42:                                  ; preds = %22, %21, %19, %lean_alloc_ctor.exit
  %23 = load ptr, ptr @l_Lake_stdTomlConfigFileContents___closed__2, align 8, !tbaa !4
  %24 = tail call ptr @lean_string_append(ptr noundef %13, ptr noundef %23) #6
  %25 = tail call ptr @l_String_quote(ptr noundef %2) #6
  tail call void @lean_inc_heartbeat() #6
  %26 = tail call noalias ptr @mi_malloc_small(i64 noundef 16) #6
  %27 = icmp eq ptr %26, null
  br i1 %27, label %28, label %lean_alloc_ctor.exit47

28:                                               ; preds = %lean_dec.exit42
  tail call void @lean_internal_panic_out_of_memory() #7
  unreachable

lean_alloc_ctor.exit47:                           ; preds = %lean_dec.exit42
  %29 = getelementptr inbounds nuw i8, ptr %26, i64 4
  store i32 1, ptr %26, align 4, !tbaa !8
  store i32 50397200, ptr %29, align 4
  %30 = getelementptr inbounds nuw i8, ptr %26, i64 8
  store ptr %25, ptr %30, align 8, !tbaa !4
  %31 = tail call ptr @lean_format_pretty(ptr noundef nonnull %26, ptr noundef %10, ptr noundef nonnull inttoptr (i64 1 to ptr), ptr noundef nonnull inttoptr (i64 1 to ptr)) #6
  %32 = tail call ptr @lean_string_append(ptr noundef %24, ptr noundef %31) #6
  %33 = load ptr, ptr @l_Lake_stdTomlConfigFileContents___closed__3, align 8, !tbaa !4
  %34 = tail call ptr @lean_string_append(ptr noundef %32, ptr noundef %33) #6
  %35 = tail call ptr @l_String_quote(ptr noundef %1) #6
  tail call void @lean_inc_heartbeat() #6
  %36 = tail call noalias ptr @mi_malloc_small(i64 noundef 16) #6
  %37 = icmp eq ptr %36, null
  br i1 %37, label %38, label %lean_alloc_ctor.exit48

38:                                               ; preds = %lean_alloc_ctor.exit47
  tail call void @lean_internal_panic_out_of_memory() #7
  unreachable

lean_alloc_ctor.exit48:                           ; preds = %lean_alloc_ctor.exit47
  %39 = getelementptr inbounds nuw i8, ptr %36, i64 4
  store i32 1, ptr %36, align 4, !tbaa !8
  store i32 50397200, ptr %39, align 4
  %40 = getelementptr inbounds nuw i8, ptr %36, i64 8
  store ptr %35, ptr %40, align 8, !tbaa !4
  %41 = tail call ptr @lean_format_pretty(ptr noundef nonnull %36, ptr noundef %10, ptr noundef nonnull inttoptr (i64 1 to ptr), ptr noundef nonnull inttoptr (i64 1 to ptr)) #6
  %42 = tail call ptr @lean_string_append(ptr noundef %34, ptr noundef %41) #6
  %43 = ptrtoint ptr %41 to i64
  %44 = and i64 %43, 1
  %.not49 = icmp eq i64 %44, 0
  br i1 %.not49, label %45, label %lean_dec.exit41

45:                                               ; preds = %lean_alloc_ctor.exit48
  %46 = load i32, ptr %41, align 4, !tbaa !8
  %47 = icmp sgt i32 %46, 1
  br i1 %47, label %48, label %50, !prof !11

48:                                               ; preds = %45
  %49 = add nsw i32 %46, -1
  store i32 %49, ptr %41, align 4, !tbaa !8
  br label %lean_dec.exit41

50:                                               ; preds = %45
  %.not.i43 = icmp eq i32 %46, 0
  br i1 %.not.i43, label %lean_dec.exit41, label %51

51:                                               ; preds = %50
  tail call void @lean_dec_ref_cold(ptr noundef nonnull %41) #6
  br label %lean_dec.exit41

lean_dec.exit41:                                  ; preds = %51, %50, %48, %lean_alloc_ctor.exit48
  %52 = load ptr, ptr @l_Lake_stdTomlConfigFileContents___closed__4, align 8, !tbaa !4
  %53 = tail call ptr @lean_string_append(ptr noundef %42, ptr noundef %52) #6
  %54 = tail call ptr @lean_string_append(ptr noundef %53, ptr noundef %31) #6
  %55 = ptrtoint ptr %31 to i64
  %56 = and i64 %55, 1
  %.not50 = icmp eq i64 %56, 0
  br i1 %.not50, label %57, label %lean_dec.exit

57:                                               ; preds = %lean_dec.exit41
  %58 = load i32, ptr %31, align 4, !tbaa !8
  %59 = icmp sgt i32 %58, 1
  br i1 %59, label %60, label %62, !prof !11

60:                                               ; preds = %57
  %61 = add nsw i32 %58, -1
  store i32 %61, ptr %31, align 4, !tbaa !8
  br label %lean_dec.exit

62:                                               ; preds = %57
  %.not.i45 = icmp eq i32 %58, 0
  br i1 %.not.i45, label %lean_dec.exit, label %63

63:                                               ; preds = %62
  tail call void @lean_dec_ref_cold(ptr noundef nonnull %31) #6
  br label %lean_dec.exit

lean_dec.exit:                                    ; preds = %63, %62, %60, %lean_dec.exit41
  %64 = load ptr, ptr @l_Lake_stdTomlConfigFileContents___closed__5, align 8, !tbaa !4
  %65 = tail call ptr @lean_string_append(ptr noundef %54, ptr noundef %64) #6
  ret ptr %65
}